; Function Attrs: nounwind uwtable
define internal range(i32 0, 2) i32 @test_int64() #0 {
  %1 = alloca ptr, align 8
  call void @llvm.lifetime.start.p0(i64 8, ptr nonnull %1) #4
  store ptr @t_invalid_zero, ptr %1, align 8, !tbaa !4
  %2 = call ptr @ASN1_item_d2i(ptr noundef null, ptr noundef nonnull %1, i64 noundef 4, ptr noundef nonnull @ASN1_INT64_DATA_it.local_it) #4
  %3 = icmp eq ptr %2, null
  br i1 %3, label %5, label %4

4:                                                ; preds = %0
  call void @ASN1_item_free(ptr noundef nonnull %2, ptr noundef nonnull @ASN1_INT64_DATA_it.local_it) #4
  br label %5

5:                                                ; preds = %0, %4
  %.0 = phi i32 [ 1, %4 ], [ 0, %0 ]
  call void @llvm.lifetime.end.p0(i64 8, ptr nonnull %1) #4
  ret i32 %.0
}